; Function Attrs: mustprogress uwtable
define hidden noundef ptr @_Z18mk_preamble_tacticR11ast_manager(ptr noundef nonnull align 8 dereferenceable(976) %m) local_unnamed_addr #3 personality ptr @__gxx_personality_v0 {
entry:
  %pull_ite_p = alloca %class.params_ref, align 8
  %ctx_simp_p = alloca %class.params_ref, align 8
  %ref.tmp = alloca %class.params_ref, align 8
  %ref.tmp12 = alloca %class.params_ref, align 8
  %ref.tmp17 = alloca %class.params_ref, align 8
  %ref.tmp24 = alloca %class.params_ref, align 8
  %ref.tmp31 = alloca %class.params_ref, align 8
  %ref.tmp36 = alloca %class.params_ref, align 8
  store ptr null, ptr %pull_ite_p, align 8
  invoke void @_ZN10params_ref8set_boolEPKcb(ptr noundef nonnull align 8 dereferenceable(8) %pull_ite_p, ptr noundef nonnull @.str, i1 noundef zeroext true)
          to label %invoke.cont unwind label %lpad

invoke.cont:                                      ; preds = %entry
  invoke void @_ZN10params_ref8set_boolEPKcb(ptr noundef nonnull align 8 dereferenceable(8) %pull_ite_p, ptr noundef nonnull @.str.1, i1 noundef zeroext false)
          to label %invoke.cont1 unwind label %lpad

invoke.cont1:                                     ; preds = %invoke.cont
  invoke void @_ZN10params_ref8set_boolEPKcb(ptr noundef nonnull align 8 dereferenceable(8) %pull_ite_p, ptr noundef nonnull @.str.2, i1 noundef zeroext true)
          to label %invoke.cont2 unwind label %lpad

invoke.cont2:                                     ; preds = %invoke.cont1
  invoke void @_ZN10params_ref8set_uintEPKcj(ptr noundef nonnull align 8 dereferenceable(8) %pull_ite_p, ptr noundef nonnull @.str.3, i32 noundef 10000000)
          to label %invoke.cont3 unwind label %lpad

invoke.cont3:                                     ; preds = %invoke.cont2
  invoke void @_ZN10params_ref8set_boolEPKcb(ptr noundef nonnull align 8 dereferenceable(8) %pull_ite_p, ptr noundef nonnull @.str.4, i1 noundef zeroext true)
          to label %invoke.cont4 unwind label %lpad

invoke.cont4:                                     ; preds = %invoke.cont3
  store ptr null, ptr %ctx_simp_p, align 8
  invoke void @_ZN10params_ref8set_uintEPKcj(ptr noundef nonnull align 8 dereferenceable(8) %ctx_simp_p, ptr noundef nonnull @.str.5, i32 noundef 30)
          to label %invoke.cont7 unwind label %lpad6

invoke.cont7:                                     ; preds = %invoke.cont4
  invoke void @_ZN10params_ref8set_uintEPKcj(ptr noundef nonnull align 8 dereferenceable(8) %ctx_simp_p, ptr noundef nonnull @.str.6, i32 noundef 5000000)
          to label %invoke.cont8 unwind label %lpad6

invoke.cont8:                                     ; preds = %invoke.cont7
  store ptr null, ptr %ref.tmp, align 8
  %call = invoke noundef ptr @_Z18mk_simplify_tacticR11ast_managerRK10params_ref(ptr noundef nonnull align 8 dereferenceable(976) %m, ptr noundef nonnull align 8 dereferenceable(8) %ref.tmp)
          to label %invoke.cont11 unwind label %lpad10

invoke.cont11:                                    ; preds = %invoke.cont8
  store ptr null, ptr %ref.tmp12, align 8
  %call16 = invoke noundef ptr @_Z26mk_propagate_values_tacticR11ast_managerRK10params_ref(ptr noundef nonnull align 8 dereferenceable(976) %m, ptr noundef nonnull align 8 dereferenceable(8) %ref.tmp12)
          to label %invoke.cont15 unwind label %lpad14

invoke.cont15:                                    ; preds = %invoke.cont11
  store ptr null, ptr %ref.tmp17, align 8
  %call21 = invoke noundef ptr @_Z22mk_ctx_simplify_tacticR11ast_managerRK10params_ref(ptr noundef nonnull align 8 dereferenceable(976) %m, ptr noundef nonnull align 8 dereferenceable(8) %ref.tmp17)
          to label %invoke.cont20 unwind label %lpad19

invoke.cont20:                                    ; preds = %invoke.cont15
  %call23 = invoke noundef ptr @_Z12using_paramsP6tacticRK10params_ref(ptr noundef %call21, ptr noundef nonnull align 8 dereferenceable(8) %ctx_simp_p)
          to label %invoke.cont22 unwind label %lpad19

invoke.cont22:                                    ; preds = %invoke.cont20
  store ptr null, ptr %ref.tmp24, align 8
  %call28 = invoke noundef ptr @_Z18mk_simplify_tacticR11ast_managerRK10params_ref(ptr noundef nonnull align 8 dereferenceable(976) %m, ptr noundef nonnull align 8 dereferenceable(8) %ref.tmp24)
          to label %invoke.cont27 unwind label %lpad26

invoke.cont27:                                    ; preds = %invoke.cont22
  %call30 = invoke noundef ptr @_Z12using_paramsP6tacticRK10params_ref(ptr noundef %call28, ptr noundef nonnull align 8 dereferenceable(8) %pull_ite_p)
          to label %invoke.cont29 unwind label %lpad26

invoke.cont29:                                    ; preds = %invoke.cont27
  store ptr null, ptr %ref.tmp31, align 8
  %call.i13 = invoke noalias noundef ptr @_ZN6memory8allocateEm(i64 noundef 352)
          to label %call.i.noexc unwind label %lpad33

call.i.noexc:                                     ; preds = %invoke.cont29
  invoke void @_ZN27dependent_expr_state_tacticC2ER11ast_managerRK10params_refPFP25dependent_expr_simplifierS1_S4_R20dependent_expr_stateE(ptr noundef nonnull align 8 dereferenceable(345) %call.i13, ptr noundef nonnull align 8 dereferenceable(976) %m, ptr noundef nonnull align 8 dereferenceable(8) %ref.tmp31, ptr noundef nonnull @_ZZ19mk_solve_eqs_tacticR11ast_managerRK10params_refENUlRT_RT0_RT1_E_8__invokeIS_S2_20dependent_expr_stateEEP25dependent_expr_simplifierS5_S7_S9_)
          to label %invoke.cont34 unwind label %lpad33

invoke.cont34:                                    ; preds = %call.i.noexc
  store ptr null, ptr %ref.tmp36, align 8
  %call40 = invoke noundef ptr @_Z22mk_elim_uncnstr_tacticR11ast_managerRK10params_ref(ptr noundef nonnull align 8 dereferenceable(976) %m, ptr noundef nonnull align 8 dereferenceable(8) %ref.tmp36)
          to label %invoke.cont39 unwind label %lpad38

invoke.cont39:                                    ; preds = %invoke.cont34
  %call42 = invoke noundef ptr @_Z8and_thenP6tacticS0_S0_S0_S0_S0_(ptr noundef %call, ptr noundef %call16, ptr noundef %call23, ptr noundef %call30, ptr noundef nonnull %call.i13, ptr noundef %call40)
          to label %invoke.cont41 unwind label %lpad38

invoke.cont41:                                    ; preds = %invoke.cont39
  call void @_ZN10params_refD1Ev(ptr noundef nonnull align 8 dereferenceable(8) %ref.tmp36) #16
  call void @_ZN10params_refD1Ev(ptr noundef nonnull align 8 dereferenceable(8) %ref.tmp31) #16
  call void @_ZN10params_refD1Ev(ptr noundef nonnull align 8 dereferenceable(8) %ref.tmp24) #16
  call void @_ZN10params_refD1Ev(ptr noundef nonnull align 8 dereferenceable(8) %ref.tmp17) #16
  call void @_ZN10params_refD1Ev(ptr noundef nonnull align 8 dereferenceable(8) %ref.tmp12) #16
  call void @_ZN10params_refD1Ev(ptr noundef nonnull align 8 dereferenceable(8) %ref.tmp) #16
  call void @_ZN10params_refD1Ev(ptr noundef nonnull align 8 dereferenceable(8) %ctx_simp_p) #16
  call void @_ZN10params_refD1Ev(ptr noundef nonnull align 8 dereferenceable(8) %pull_ite_p) #16
  ret ptr %call42

lpad:                                             ; preds = %invoke.cont3, %invoke.cont2, %invoke.cont1, %invoke.cont, %entry
  %0 = landingpad { ptr, i32 }
          cleanup
  br label %ehcleanup48

lpad6:                                            ; preds = %invoke.cont7, %invoke.cont4
  %1 = landingpad { ptr, i32 }
          cleanup
  br label %ehcleanup47

lpad10:                                           ; preds = %invoke.cont8
  %2 = landingpad { ptr, i32 }
          cleanup
  br label %ehcleanup46

lpad14:                                           ; preds = %invoke.cont11
  %3 = landingpad { ptr, i32 }
          cleanup
  br label %ehcleanup45

lpad19:                                           ; preds = %invoke.cont20, %invoke.cont15
  %4 = landingpad { ptr, i32 }
          cleanup
  br label %ehcleanup44

lpad26:                                           ; preds = %invoke.cont27, %invoke.cont22
  %5 = landingpad { ptr, i32 }
          cleanup
  br label %ehcleanup43

lpad33:                                           ; preds = %call.i.noexc, %invoke.cont29
  %6 = landingpad { ptr, i32 }
          cleanup
  br label %ehcleanup

lpad38:                                           ; preds = %invoke.cont39, %invoke.cont34
  %7 = landingpad { ptr, i32 }
          cleanup
  call void @_ZN10params_refD1Ev(ptr noundef nonnull align 8 dereferenceable(8) %ref.tmp36) #16
  br label %ehcleanup

ehcleanup:                                        ; preds = %lpad38, %lpad33
  %.pn = phi { ptr, i32 } [ %7, %lpad38 ], [ %6, %lpad33 ]
  call void @_ZN10params_refD1Ev(ptr noundef nonnull align 8 dereferenceable(8) %ref.tmp31) #16
  br label %ehcleanup43

ehcleanup43:                                      ; preds = %ehcleanup, %lpad26
  %.pn.pn = phi { ptr, i32 } [ %.pn, %ehcleanup ], [ %5, %lpad26 ]
  call void @_ZN10params_refD1Ev(ptr noundef nonnull align 8 dereferenceable(8) %ref.tmp24) #16
  br label %ehcleanup44

ehcleanup44:                                      ; preds = %ehcleanup43, %lpad19
  %.pn.pn.pn = phi { ptr, i32 } [ %.pn.pn, %ehcleanup43 ], [ %4, %lpad19 ]
  call void @_ZN10params_refD1Ev(ptr noundef nonnull align 8 dereferenceable(8) %ref.tmp17) #16
  br label %ehcleanup45

ehcleanup45:                                      ; preds = %ehcleanup44, %lpad14
  %.pn.pn.pn.pn = phi { ptr, i32 } [ %.pn.pn.pn, %ehcleanup44 ], [ %3, %lpad14 ]
  call void @_ZN10params_refD1Ev(ptr noundef nonnull align 8 dereferenceable(8) %ref.tmp12) #16
  br label %ehcleanup46

ehcleanup46:                                      ; preds = %ehcleanup45, %lpad10
  %.pn.pn.pn.pn.pn = phi { ptr, i32 } [ %.pn.pn.pn.pn, %ehcleanup45 ], [ %2, %lpad10 ]
  call void @_ZN10params_refD1Ev(ptr noundef nonnull align 8 dereferenceable(8) %ref.tmp) #16
  br label %ehcleanup47

ehcleanup47:                                      ; preds = %ehcleanup46, %lpad6
  %.pn.pn.pn.pn.pn.pn = phi { ptr, i32 } [ %.pn.pn.pn.pn.pn, %ehcleanup46 ], [ %1, %lpad6 ]
  call void @_ZN10params_refD1Ev(ptr noundef nonnull align 8 dereferenceable(8) %ctx_simp_p) #16
  br label %ehcleanup48

ehcleanup48:                                      ; preds = %ehcleanup47, %lpad
  %.pn.pn.pn.pn.pn.pn.pn = phi { ptr, i32 } [ %.pn.pn.pn.pn.pn.pn, %ehcleanup47 ], [ %0, %lpad ]
  call void @_ZN10params_refD1Ev(ptr noundef nonnull align 8 dereferenceable(8) %pull_ite_p) #16
  resume { ptr, i32 } %.pn.pn.pn.pn.pn.pn.pn
}